; Function Attrs: mustprogress uwtable
define noundef ptr @ImfOpenInputFile(ptr noundef %0) local_unnamed_addr #8 personality ptr @__gxx_personality_v0 {
  %2 = invoke noalias noundef nonnull dereferenceable(64) ptr @_Znwm(i64 noundef 64) #23
          to label %3 unwind label %6

3:                                                ; preds = %1
  %4 = invoke noundef i32 @_ZN7Imf_3_417globalThreadCountEv()
          to label %5 unwind label %8

5:                                                ; preds = %3
  invoke void @_ZN7Imf_3_413RgbaInputFileC1EPKci(ptr noundef nonnull align 8 dereferenceable(64) %2, ptr noundef %0, i32 noundef %4)
          to label %20 unwind label %8

6:                                                ; preds = %1
  %7 = landingpad { ptr, i32 }
          catch ptr @_ZTISt9exception
  br label %10

8:                                                ; preds = %5, %3
  %9 = landingpad { ptr, i32 }
          cleanup
          catch ptr @_ZTISt9exception
  tail call void @_ZdlPvm(ptr noundef nonnull %2, i64 noundef 64) #25
  br label %10

10:                                               ; preds = %8, %6
  %.pn = phi { ptr, i32 } [ %9, %8 ], [ %7, %6 ]
  %.06 = extractvalue { ptr, i32 } %.pn, 1
  %11 = tail call i32 @llvm.eh.typeid.for.p0(ptr nonnull @_ZTISt9exception) #24
  %12 = icmp eq i32 %.06, %11
  br i1 %12, label %13, label %21

13:                                               ; preds = %10
  %.07 = extractvalue { ptr, i32 } %.pn, 0
  %14 = tail call ptr @__cxa_begin_catch(ptr %.07) #24
  %15 = load ptr, ptr %14, align 8, !tbaa !22
  %16 = getelementptr inbounds nuw i8, ptr %15, i64 16
  %17 = load ptr, ptr %16, align 8
  %18 = tail call noundef ptr %17(ptr noundef nonnull align 8 dereferenceable(8) %14) #24
  %19 = tail call ptr @strncpy(ptr noundef nonnull dereferenceable(1) @_ZN12_GLOBAL__N_112errorMessageE, ptr noundef nonnull dereferenceable(1) %18, i64 noundef 1023) #24
  store i8 0, ptr getelementptr inbounds nuw (i8, ptr @_ZN12_GLOBAL__N_112errorMessageE, i64 1023), align 1, !tbaa !15
  tail call void @__cxa_end_catch()
  br label %20

20:                                               ; preds = %5, %13
  %.0 = phi ptr [ null, %13 ], [ %2, %5 ]
  ret ptr %.0

21:                                               ; preds = %10
  resume { ptr, i32 } %.pn
}